target datalayout = "e-m:e-p270:32:32-p271:32:32-p272:64:64-i64:64-i128:128-f80:128-n8:16:32:64-S128"
target triple = "x86_64-pc-linux-gnu"

%"class.net::QuicBandwidth" = type { i64 }

; Function Attrs: mustprogress uwtable
define i64 @_ZNK3net30QuicMultipathSentPacketManager17BandwidthEstimateEv(ptr noundef nonnull align 8 dereferenceable(40) %0) unnamed_addr #0 align 2 {
  %2 = alloca %"class.net::QuicBandwidth", align 8
  %3 = alloca ptr, align 8
  %4 = alloca ptr, align 8
  %5 = alloca i32, align 4
  store ptr %0, ptr %3, align 8, !tbaa !3
  %6 = load ptr, ptr %3, align 8
  call void @llvm.lifetime.start.p0(i64 8, ptr %4) #15
  %7 = call noundef ptr @_ZNK3net30QuicMultipathSentPacketManager38MaybeGetSentPacketManagerForActivePathEh(ptr noundef nonnull align 8 dereferenceable(40) %6, i8 noundef zeroext 0)
  store ptr %7, ptr %4, align 8, !tbaa !8
  %8 = load ptr, ptr %4, align 8, !tbaa !8
  %9 = icmp eq ptr %8, null
  br i1 %9, label %10, label %13

10:                                               ; preds = %1
  %11 = call i64 @_ZN3net13QuicBandwidth4ZeroEv()
  %12 = getelementptr inbounds nuw %"class.net::QuicBandwidth", ptr %2, i32 0, i32 0
  store i64 %11, ptr %12, align 8
  store i32 1, ptr %5, align 4
  br label %20

13:                                               ; preds = %1
  %14 = load ptr, ptr %4, align 8, !tbaa !8
  %15 = load ptr, ptr %14, align 8, !tbaa !12
  %16 = getelementptr inbounds ptr, ptr %15, i64 20
  %17 = load ptr, ptr %16, align 8
  %18 = call i64 %17(ptr noundef nonnull align 8 dereferenceable(8) %14)
  %19 = getelementptr inbounds nuw %"class.net::QuicBandwidth", ptr %2, i32 0, i32 0
  store i64 %18, ptr %19, align 8
  store i32 1, ptr %5, align 4
  br label %20

20:                                               ; preds = %13, %10
  call void @llvm.lifetime.end.p0(i64 8, ptr %4) #15
  %21 = getelementptr inbounds nuw %"class.net::QuicBandwidth", ptr %2, i32 0, i32 0
  %22 = load i64, ptr %21, align 8
  ret i64 %22
}