; Function Attrs: mustprogress uwtable
define i64 @_ZNK3net30QuicMultipathSentPacketManager17BandwidthEstimateEv(ptr noundef nonnull readonly align 8 captures(none) dereferenceable(40) %0) unnamed_addr #0 align 2 {
  %2 = tail call noundef ptr @_ZNK3net30QuicMultipathSentPacketManager38MaybeGetSentPacketManagerForActivePathEh(ptr noundef nonnull align 8 dereferenceable(40) %0, i8 noundef zeroext 0)
  %3 = icmp eq ptr %2, null
  br i1 %3, label %4, label %6

4:                                                ; preds = %1
  %5 = tail call i64 @_ZN3net13QuicBandwidth4ZeroEv()
  br label %11

6:                                                ; preds = %1
  %7 = load ptr, ptr %2, align 8, !tbaa !3
  %8 = getelementptr inbounds nuw i8, ptr %7, i64 160
  %9 = load ptr, ptr %8, align 8
  %10 = tail call i64 %9(ptr noundef nonnull align 8 dereferenceable(8) %2)
  br label %11

11:                                               ; preds = %6, %4
  %.sroa.0.0 = phi i64 [ %5, %4 ], [ %10, %6 ]
  ret i64 %.sroa.0.0
}